
Allocating common symbols
Common symbol       size              file

user_stack          0x1000            kernel/kernel.o

Memory Configuration

Name             Origin             Length             Attributes
*default*        0x0000000000000000 0xffffffffffffffff

Linker script and memory map


.text           0x0000000000100000     0x6ce2
 *(.text)
 .text          0x0000000000100000     0x60b1 boot/head.o
                0x0000000000100000                _start
                0x000000000010509e                idt
                0x000000000010589e                gdt
 *fill*         0x00000000001060b1        0x3 00
 .text          0x00000000001060b4      0x256 init/main.o
                0x00000000001062d1                main
 *fill*         0x000000000010630a        0x6 00
 .text          0x0000000000106310      0x9d2 kernel/kernel.o
                0x0000000000106310                kernel_mktime
                0x00000000001063bc                sys_setup
                0x00000000001063c1                sys_exit
                0x00000000001063c6                sys_read
                0x00000000001063cb                sys_write
                0x00000000001063d0                sys_open
                0x00000000001063d5                sys_close
                0x00000000001063da                sys_waitpid
                0x00000000001063df                sys_creat
                0x00000000001063e4                sys_link
                0x00000000001063e9                sys_unlink
                0x00000000001063ee                sys_chdir
                0x00000000001063f3                sys_time
                0x00000000001063f8                sys_mknod
                0x00000000001063fd                sys_chmod
                0x0000000000106402                sys_chown
                0x0000000000106407                sys_break
                0x000000000010640c                sys_stat
                0x0000000000106411                sys_lseek
                0x0000000000106416                sys_getpid
                0x000000000010641b                sys_mount
                0x0000000000106420                sys_umount
                0x0000000000106425                sys_setuid
                0x000000000010642a                sys_getuid
                0x000000000010642f                sys_stime
                0x0000000000106434                sys_ptrace
                0x0000000000106439                sys_alarm
                0x000000000010643e                sys_fstat
                0x0000000000106443                sys_pause
                0x0000000000106448                sys_utime
                0x000000000010644d                sys_stty
                0x0000000000106452                sys_gtty
                0x0000000000106457                sys_access
                0x000000000010645c                sys_nice
                0x0000000000106461                sys_ftime
                0x0000000000106466                sys_sync
                0x000000000010646b                sys_kill
                0x0000000000106470                sys_rename
                0x0000000000106475                sys_mkdir
                0x000000000010647a                sys_rmdir
                0x000000000010647f                sys_dup
                0x0000000000106484                sys_pipe
                0x0000000000106489                sys_times
                0x000000000010648e                sys_prof
                0x0000000000106493                sys_brk
                0x0000000000106498                sys_setgid
                0x000000000010649d                sys_getgid
                0x00000000001064a2                sys_signal
                0x00000000001064a7                sys_geteuid
                0x00000000001064ac                sys_getegid
                0x00000000001064b1                sys_acct
                0x00000000001064b6                sys_phys
                0x00000000001064bb                sys_lock
                0x00000000001064c0                sys_ioctl
                0x00000000001064c5                sys_fcntl
                0x00000000001064ca                sys_mpx
                0x00000000001064cf                sys_setpgid
                0x00000000001064d4                sys_ulimit
                0x00000000001064d9                sys_uname
                0x00000000001064de                sys_umask
                0x00000000001064e3                sys_chroot
                0x00000000001064e8                sys_ustat
                0x00000000001064ed                sys_dup2
                0x00000000001064f2                sys_getppid
                0x00000000001064f7                sys_getpgrp
                0x00000000001064fc                sys_setsid
                0x0000000000106501                sys_sigaction
                0x0000000000106506                sys_sgetmask
                0x000000000010650b                sys_ssetmask
                0x0000000000106510                sys_setreuid
                0x0000000000106515                sys_setregid
                0x000000000010651a                sys_sigpending
                0x000000000010651f                sys_sigsuspend
                0x0000000000106524                sys_sethostname
                0x0000000000106529                sys_setrlimit
                0x000000000010652e                sys_getrlimit
                0x0000000000106533                sys_getrusage
                0x0000000000106538                sys_gettimeofday
                0x000000000010653d                sys_settimeofday
                0x0000000000106542                sys_getgroups
                0x0000000000106547                sys_setgroups
                0x000000000010654c                sys_select
                0x0000000000106551                sys_symlink
                0x0000000000106556                sys_lstat
                0x000000000010655b                sys_readlink
                0x0000000000106560                sys_uselib
                0x000000000010656d                do_double_fault
                0x000000000010658f                do_general_protection
                0x00000000001065b1                do_alignment_check
                0x00000000001065d3                do_divide_error
                0x00000000001065f5                do_int3
                0x00000000001065fa                do_nmi
                0x000000000010661c                do_debug
                0x000000000010663e                do_overflow
                0x0000000000106660                do_bounds
                0x0000000000106682                do_invalid_op
                0x00000000001066a4                do_device_not_available
                0x00000000001066c6                do_coprocessor_segment_overrun
                0x00000000001066e8                do_invalid_TSS
                0x000000000010671c                do_segment_not_present
                0x000000000010673e                do_stack_segment
                0x0000000000106760                do_coprocessor_error
                0x0000000000106782                do_reserved
                0x00000000001067a4                trap_init
                0x0000000000106aa4                sys_call
                0x0000000000106ae8                coprocessor_error
                0x0000000000106b08                device_not_available
                0x0000000000106b28                sys_execve
                0x0000000000106b2c                sys_fork
                0x0000000000106b2d                parallel_interrupt
                0x0000000000106b40                divide_error
                0x0000000000106b47                debug
                0x0000000000106b4e                nmi
                0x0000000000106b55                int3
                0x0000000000106b5c                overflow
                0x0000000000106b63                bounds
                0x0000000000106b6a                invalid_op
                0x0000000000106b71                double_fault
                0x0000000000106b78                coprocessor_segment_overrun
                0x0000000000106b7f                invalid_TSS
                0x0000000000106b86                segment_not_present
                0x0000000000106b8d                stack_segment
                0x0000000000106b94                general_protection
                0x0000000000106b9b                reserved
                0x0000000000106ba2                alignment_check
                0x0000000000106ba9                irq13
                0x0000000000106c20                get_fs_byte
                0x0000000000106c2f                get_fs_word
                0x0000000000106c4b                get_fs_long
                0x0000000000106c64                put_fs_byte
                0x0000000000106c7c                put_fs_word
                0x0000000000106c96                put_fs_long
                0x0000000000106ca4                get_fs
                0x0000000000106cbe                get_ds
                0x0000000000106cd8                set_fs

.rodata         0x0000000000106ce2      0x11a
 .rodata        0x0000000000106ce2       0x27 init/main.o
 .rodata        0x0000000000106d09       0xf3 kernel/kernel.o

.eh_frame       0x0000000000106dfc      0xeb8
 .eh_frame      0x0000000000106dfc       0x5c init/main.o
 .eh_frame      0x0000000000106e58      0xe5c kernel/kernel.o
                                        0xebc (size before relaxing)

.iplt           0x0000000000107cc0        0x0
 .iplt          0x0000000000000000        0x0 boot/head.o

.rel.dyn        0x0000000000107cb4        0x0
 .rel.iplt      0x0000000000000000        0x0 boot/head.o
 .rel.text      0x0000000000000000        0x0 boot/head.o
 .rel.data      0x0000000000000000        0x0 boot/head.o

.data           0x0000000000107cc0      0x200
 *(.data)
 .data          0x0000000000107cc0       0x28 init/main.o
 *fill*         0x0000000000107ce8       0x18 00
 .data          0x0000000000107d00      0x1c0 kernel/kernel.o
                0x0000000000107d00                stack_start
                0x0000000000107d60                sys_call_table
                0x0000000000107ebc                NR_syscalls
LOAD boot/head.o
LOAD init/main.o
LOAD kernel/kernel.o
OUTPUT(tools/system elf32-i386)

.igot.plt       0x0000000000107ec0        0x0
 .igot.plt      0x0000000000000000        0x0 boot/head.o

.bss            0x0000000000107ec0     0x1060
 .bss           0x0000000000107ec0       0x40 init/main.o
 .bss           0x0000000000107f00        0xc kernel/kernel.o
                0x0000000000107f00                current
                0x0000000000107f04                last_task_used_math
                0x0000000000107f08                startup_time
 *fill*         0x0000000000107f0c       0x14 00
 COMMON         0x0000000000107f20     0x1000 kernel/kernel.o
                0x0000000000107f20                user_stack

.comment        0x0000000000000000       0x2a
 .comment       0x0000000000000000       0x2a init/main.o
                                         0x2b (size before relaxing)
 .comment       0x0000000000000000       0xd7 kernel/kernel.o

.note.GNU-stack
                0x0000000000000000        0x0
 .note.GNU-stack
                0x0000000000000000        0x0 init/main.o
 .note.GNU-stack
                0x0000000000000000        0x0 kernel/kernel.o
